target datalayout = "e-m:e-p270:32:32-p271:32:32-p272:64:64-i64:64-i128:128-f80:128-n8:16:32:64-S128"
target triple = "x86_64-pc-linux-gnu"

%struct._exr_decode_pipeline = type { i64, ptr, i16, i16, i32, ptr, %struct.exr_chunk_info_t, i32, i32, i64, ptr, ptr, i64, ptr, i64, ptr, i64, ptr, i64, ptr, i64, ptr, i64, ptr, ptr, ptr, ptr, ptr, ptr, [5 x %struct.exr_coding_channel_info_t] }
%struct.exr_chunk_info_t = type { i32, i32, i32, i32, i32, i8, i8, i8, i8, i64, i64, i64, i64, i64 }
%struct.exr_coding_channel_info_t = type { ptr, i32, i32, i32, i32, i8, i8, i16, i16, i16, i32, i32, %union.anon }
%union.anon = type { ptr }
%struct._priv_exr_context_t = type { i8, i8, i8, i8, i8, i8, i8, i8, %struct.exr_attr_string_t, %struct.exr_attr_string_t, ptr, ptr, ptr, ptr, ptr, ptr, ptr, ptr, i32, i32, i32, i32, i32, float, ptr, ptr, ptr, i64, ptr, ptr, i64, i32, i32, i32, i32, %struct._priv_exr_part_t, ptr, ptr, %struct.exr_attribute_list, %union.pthread_mutex_t, i8, i8, [2 x i8], i32 }
%struct.exr_attr_string_t = type { i32, i32, ptr }
%struct._priv_exr_part_t = type { i32, i32, %struct.exr_attribute_list, ptr, ptr, ptr, ptr, ptr, ptr, ptr, ptr, ptr, ptr, ptr, ptr, ptr, ptr, %struct.exr_attr_box2i_t, %struct.exr_attr_box2i_t, i32, i32, i32, float, i32, i32, ptr, ptr, ptr, ptr, i64, i16, i16, i32, i64, i64 }
%struct.exr_attr_box2i_t = type { %struct.exr_attr_v2i_t, %struct.exr_attr_v2i_t }
%struct.exr_attr_v2i_t = type { i32, i32 }
%struct.exr_attribute_list = type { i32, i32, ptr, ptr }
%union.pthread_mutex_t = type { %struct.__pthread_mutex_s }
%struct.__pthread_mutex_s = type { i32, i32, i32, i32, i32, i16, i16, %struct.__pthread_internal_list }
%struct.__pthread_internal_list = type { ptr, ptr }
%struct.exr_attribute_t = type { ptr, ptr, i8, i8, [2 x i8], i32, %union.anon.0 }
%union.anon.0 = type { double }
%struct.exr_attr_chlist_t = type { i32, i32, ptr }

@.str = private unnamed_addr constant [80 x i8] c"Version %d not supported for deepscanline images in this version of the library\00", align 1

; Function Attrs: nounwind uwtable
define i32 @exr_decoding_initialize(ptr noundef %0, i32 noundef %1, ptr noundef %2, ptr noundef %3) #0 {
  %5 = alloca i32, align 4
  %6 = alloca ptr, align 8
  %7 = alloca i32, align 4
  %8 = alloca ptr, align 8
  %9 = alloca ptr, align 8
  %10 = alloca i32, align 4
  %11 = alloca %struct._exr_decode_pipeline, align 8
  %12 = alloca ptr, align 8
  %13 = alloca i32, align 4
  store ptr %0, ptr %6, align 8, !tbaa !3
  store i32 %1, ptr %7, align 4, !tbaa !8
  store ptr %2, ptr %8, align 8, !tbaa !10
  store ptr %3, ptr %9, align 8, !tbaa !11
  call void @llvm.lifetime.start.p0(i64 4, ptr %10) #6
  call void @llvm.lifetime.start.p0(i64 504, ptr %11) #6
  call void @llvm.memset.p0.i64(ptr align 8 %11, i8 0, i64 504, i1 false)
  call void @llvm.lifetime.start.p0(i64 8, ptr %12) #6
  %14 = load ptr, ptr %6, align 8, !tbaa !3
  %15 = icmp ne ptr %14, null
  br i1 %15, label %17, label %16

16:                                               ; preds = %4
  store i32 2, ptr %5, align 4
  store i32 1, ptr %13, align 4
  br label %129

17:                                               ; preds = %4
  %18 = load ptr, ptr %8, align 8, !tbaa !10
  %19 = icmp ne ptr %18, null
  br i1 %19, label %20, label %23

20:                                               ; preds = %17
  %21 = load ptr, ptr %9, align 8, !tbaa !11
  %22 = icmp ne ptr %21, null
  br i1 %22, label %29, label %23

23:                                               ; preds = %20, %17
  %24 = load ptr, ptr %6, align 8, !tbaa !3
  %25 = getelementptr inbounds nuw %struct._priv_exr_context_t, ptr %24, i32 0, i32 12
  %26 = load ptr, ptr %25, align 8, !tbaa !13
  %27 = load ptr, ptr %6, align 8, !tbaa !3
  %28 = call i32 %26(ptr noundef %27, i32 noundef 3)
  store i32 %28, ptr %5, align 4
  store i32 1, ptr %13, align 4
  br label %129

29:                                               ; preds = %20
  %30 = load i32, ptr %7, align 4, !tbaa !8
  %31 = icmp slt i32 %30, 0
  br i1 %31, label %38, label %32

32:                                               ; preds = %29
  %33 = load i32, ptr %7, align 4, !tbaa !8
  %34 = load ptr, ptr %6, align 8, !tbaa !3
  %35 = getelementptr inbounds nuw %struct._priv_exr_context_t, ptr %34, i32 0, i32 34
  %36 = load i32, ptr %35, align 4, !tbaa !28
  %37 = icmp sge i32 %33, %36
  br i1 %37, label %38, label %39

38:                                               ; preds = %32, %29
  store i32 4, ptr %5, align 4
  store i32 1, ptr %13, align 4
  br label %129

39:                                               ; preds = %32
  %40 = load ptr, ptr %6, align 8, !tbaa !3
  %41 = getelementptr inbounds nuw %struct._priv_exr_context_t, ptr %40, i32 0, i32 37
  %42 = load ptr, ptr %41, align 8, !tbaa !29
  %43 = load i32, ptr %7, align 4, !tbaa !8
  %44 = sext i32 %43 to i64
  %45 = getelementptr inbounds ptr, ptr %42, i64 %44
  %46 = load ptr, ptr %45, align 8, !tbaa !30
  store ptr %46, ptr %12, align 8, !tbaa !30
  %47 = load ptr, ptr %9, align 8, !tbaa !11
  call void @llvm.memcpy.p0.p0.i64(ptr align 8 %47, ptr align 8 %11, i64 504, i1 false), !tbaa.struct !31
  %48 = load ptr, ptr %12, align 8, !tbaa !30
  %49 = getelementptr inbounds nuw %struct._priv_exr_part_t, ptr %48, i32 0, i32 1
  %50 = load i32, ptr %49, align 4, !tbaa !36
  %51 = icmp eq i32 %50, 2
  br i1 %51, label %57, label %52

52:                                               ; preds = %39
  %53 = load ptr, ptr %12, align 8, !tbaa !30
  %54 = getelementptr inbounds nuw %struct._priv_exr_part_t, ptr %53, i32 0, i32 1
  %55 = load i32, ptr %54, align 4, !tbaa !36
  %56 = icmp eq i32 %55, 3
  br i1 %56, label %57, label %81

57:                                               ; preds = %52, %39
  %58 = load ptr, ptr %12, align 8, !tbaa !30
  %59 = getelementptr inbounds nuw %struct._priv_exr_part_t, ptr %58, i32 0, i32 14
  %60 = load ptr, ptr %59, align 8, !tbaa !37
  %61 = icmp ne ptr %60, null
  br i1 %61, label %62, label %80

62:                                               ; preds = %57
  %63 = load ptr, ptr %12, align 8, !tbaa !30
  %64 = getelementptr inbounds nuw %struct._priv_exr_part_t, ptr %63, i32 0, i32 14
  %65 = load ptr, ptr %64, align 8, !tbaa !37
  %66 = getelementptr inbounds nuw %struct.exr_attribute_t, ptr %65, i32 0, i32 6
  %67 = load i32, ptr %66, align 8, !tbaa !34
  %68 = icmp ne i32 %67, 1
  br i1 %68, label %69, label %80

69:                                               ; preds = %62
  %70 = load ptr, ptr %6, align 8, !tbaa !3
  %71 = getelementptr inbounds nuw %struct._priv_exr_context_t, ptr %70, i32 0, i32 14
  %72 = load ptr, ptr %71, align 8, !tbaa !38
  %73 = load ptr, ptr %6, align 8, !tbaa !3
  %74 = load ptr, ptr %12, align 8, !tbaa !30
  %75 = getelementptr inbounds nuw %struct._priv_exr_part_t, ptr %74, i32 0, i32 14
  %76 = load ptr, ptr %75, align 8, !tbaa !37
  %77 = getelementptr inbounds nuw %struct.exr_attribute_t, ptr %76, i32 0, i32 6
  %78 = load i32, ptr %77, align 8, !tbaa !34
  %79 = call i32 (ptr, i32, ptr, ...) %72(ptr noundef %73, i32 noundef 14, ptr noundef @.str, i32 noundef %78)
  store i32 %79, ptr %5, align 4
  store i32 1, ptr %13, align 4
  br label %129

80:                                               ; preds = %62, %57
  br label %81

81:                                               ; preds = %80, %52
  %82 = load ptr, ptr %12, align 8, !tbaa !30
  %83 = getelementptr inbounds nuw %struct._priv_exr_part_t, ptr %82, i32 0, i32 3
  %84 = load ptr, ptr %83, align 8, !tbaa !39
  %85 = icmp ne ptr %84, null
  br i1 %85, label %86, label %102

86:                                               ; preds = %81
  %87 = load ptr, ptr %12, align 8, !tbaa !30
  %88 = getelementptr inbounds nuw %struct._priv_exr_part_t, ptr %87, i32 0, i32 3
  %89 = load ptr, ptr %88, align 8, !tbaa !39
  %90 = getelementptr inbounds nuw %struct.exr_attribute_t, ptr %89, i32 0, i32 5
  %91 = load i32, ptr %90, align 4, !tbaa !40
  %92 = icmp ne i32 %91, 3
  br i1 %92, label %102, label %93

93:                                               ; preds = %86
  %94 = load ptr, ptr %12, align 8, !tbaa !30
  %95 = getelementptr inbounds nuw %struct._priv_exr_part_t, ptr %94, i32 0, i32 3
  %96 = load ptr, ptr %95, align 8, !tbaa !39
  %97 = getelementptr inbounds nuw %struct.exr_attribute_t, ptr %96, i32 0, i32 6
  %98 = load ptr, ptr %97, align 8, !tbaa !34
  %99 = getelementptr inbounds nuw %struct.exr_attr_chlist_t, ptr %98, i32 0, i32 0
  %100 = load i32, ptr %99, align 8, !tbaa !42
  %101 = icmp sle i32 %100, 0
  br i1 %101, label %102, label %103

102:                                              ; preds = %93, %86, %81
  store i32 14, ptr %5, align 4
  store i32 1, ptr %13, align 4
  br label %129

103:                                              ; preds = %93
  %104 = load ptr, ptr %9, align 8, !tbaa !11
  %105 = getelementptr inbounds nuw %struct._exr_decode_pipeline, ptr %104, i32 0, i32 1
  %106 = load ptr, ptr %9, align 8, !tbaa !11
  %107 = getelementptr inbounds nuw %struct._exr_decode_pipeline, ptr %106, i32 0, i32 2
  %108 = load ptr, ptr %9, align 8, !tbaa !11
  %109 = getelementptr inbounds nuw %struct._exr_decode_pipeline, ptr %108, i32 0, i32 29
  %110 = getelementptr inbounds [5 x %struct.exr_coding_channel_info_t], ptr %109, i64 0, i64 0
  %111 = load ptr, ptr %8, align 8, !tbaa !10
  %112 = load ptr, ptr %6, align 8, !tbaa !3
  %113 = load ptr, ptr %12, align 8, !tbaa !30
  %114 = call i32 @internal_coding_fill_channel_info(ptr noundef %105, ptr noundef %107, ptr noundef %110, ptr noundef %111, ptr noundef %112, ptr noundef %113)
  store i32 %114, ptr %10, align 4, !tbaa !8
  %115 = load i32, ptr %10, align 4, !tbaa !8
  %116 = icmp eq i32 %115, 0
  br i1 %116, label %117, label %127

117:                                              ; preds = %103
  %118 = load i32, ptr %7, align 4, !tbaa !8
  %119 = load ptr, ptr %9, align 8, !tbaa !11
  %120 = getelementptr inbounds nuw %struct._exr_decode_pipeline, ptr %119, i32 0, i32 4
  store i32 %118, ptr %120, align 4, !tbaa !44
  %121 = load ptr, ptr %6, align 8, !tbaa !3
  %122 = load ptr, ptr %9, align 8, !tbaa !11
  %123 = getelementptr inbounds nuw %struct._exr_decode_pipeline, ptr %122, i32 0, i32 5
  store ptr %121, ptr %123, align 8, !tbaa !47
  %124 = load ptr, ptr %9, align 8, !tbaa !11
  %125 = getelementptr inbounds nuw %struct._exr_decode_pipeline, ptr %124, i32 0, i32 6
  %126 = load ptr, ptr %8, align 8, !tbaa !10
  call void @llvm.memcpy.p0.p0.i64(ptr align 8 %125, ptr align 8 %126, i64 64, i1 false), !tbaa.struct !48
  br label %127

127:                                              ; preds = %117, %103
  %128 = load i32, ptr %10, align 4, !tbaa !8
  store i32 %128, ptr %5, align 4
  store i32 1, ptr %13, align 4
  br label %129

129:                                              ; preds = %127, %102, %69, %38, %23, %16
  call void @llvm.lifetime.end.p0(i64 8, ptr %12) #6
  call void @llvm.lifetime.end.p0(i64 504, ptr %11) #6
  call void @llvm.lifetime.end.p0(i64 4, ptr %10) #6
  %130 = load i32, ptr %5, align 4
  ret i32 %130
}