; Function Attrs: nounwind uwtable
define i32 @exr_decoding_initialize(ptr noundef %0, i32 noundef %1, ptr noundef %2, ptr noundef %3) local_unnamed_addr #0 {
  %.not = icmp eq ptr %0, null
  br i1 %.not, label %57, label %5

5:                                                ; preds = %4
  %6 = icmp ne ptr %2, null
  %7 = icmp ne ptr %3, null
  %or.cond = and i1 %6, %7
  br i1 %or.cond, label %12, label %8

8:                                                ; preds = %5
  %9 = getelementptr inbounds nuw i8, ptr %0, i64 56
  %10 = load ptr, ptr %9, align 8, !tbaa !3
  %11 = tail call i32 %10(ptr noundef nonnull %0, i32 noundef 3) #5
  br label %57

12:                                               ; preds = %5
  %13 = icmp slt i32 %1, 0
  br i1 %13, label %57, label %14

14:                                               ; preds = %12
  %15 = getelementptr inbounds nuw i8, ptr %0, i64 196
  %16 = load i32, ptr %15, align 4, !tbaa !22
  %.not44 = icmp slt i32 %1, %16
  br i1 %.not44, label %17, label %57

17:                                               ; preds = %14
  %18 = getelementptr inbounds nuw i8, ptr %0, i64 472
  %19 = load ptr, ptr %18, align 8, !tbaa !23
  %20 = zext nneg i32 %1 to i64
  %21 = getelementptr inbounds nuw ptr, ptr %19, i64 %20
  %22 = load ptr, ptr %21, align 8, !tbaa !24
  tail call void @llvm.memset.p0.i64(ptr noundef nonnull align 8 dereferenceable(504) %3, i8 0, i64 504, i1 false)
  %23 = getelementptr inbounds nuw i8, ptr %22, i64 4
  %24 = load i32, ptr %23, align 4, !tbaa !25
  %25 = and i32 %24, -2
  %switch = icmp eq i32 %25, 2
  br i1 %switch, label %26, label %36

26:                                               ; preds = %17
  %27 = getelementptr inbounds nuw i8, ptr %22, i64 120
  %28 = load ptr, ptr %27, align 8, !tbaa !26
  %.not45 = icmp eq ptr %28, null
  br i1 %.not45, label %36, label %29

29:                                               ; preds = %26
  %30 = getelementptr inbounds nuw i8, ptr %28, i64 24
  %31 = load i32, ptr %30, align 8, !tbaa !27
  %.not46 = icmp eq i32 %31, 1
  br i1 %.not46, label %36, label %32

32:                                               ; preds = %29
  %33 = getelementptr inbounds nuw i8, ptr %0, i64 72
  %34 = load ptr, ptr %33, align 8, !tbaa !28
  %35 = tail call i32 (ptr, i32, ptr, ...) %34(ptr noundef nonnull %0, i32 noundef 14, ptr noundef nonnull @.str, i32 noundef %31) #5
  br label %57

36:                                               ; preds = %17, %26, %29
  %37 = getelementptr inbounds nuw i8, ptr %22, i64 32
  %38 = load ptr, ptr %37, align 8, !tbaa !29
  %.not47 = icmp eq ptr %38, null
  br i1 %.not47, label %57, label %39

39:                                               ; preds = %36
  %40 = getelementptr inbounds nuw i8, ptr %38, i64 20
  %41 = load i32, ptr %40, align 4, !tbaa !30
  %.not48 = icmp eq i32 %41, 3
  br i1 %.not48, label %42, label %57

42:                                               ; preds = %39
  %43 = getelementptr inbounds nuw i8, ptr %38, i64 24
  %44 = load ptr, ptr %43, align 8, !tbaa !27
  %45 = load i32, ptr %44, align 8, !tbaa !32
  %46 = icmp slt i32 %45, 1
  br i1 %46, label %57, label %47

47:                                               ; preds = %42
  %48 = getelementptr inbounds nuw i8, ptr %3, i64 8
  %49 = getelementptr inbounds nuw i8, ptr %3, i64 16
  %50 = getelementptr inbounds nuw i8, ptr %3, i64 264
  %51 = tail call i32 @internal_coding_fill_channel_info(ptr noundef nonnull %48, ptr noundef nonnull %49, ptr noundef nonnull %50, ptr noundef nonnull %2, ptr noundef nonnull %0, ptr noundef nonnull %22) #5
  %52 = icmp eq i32 %51, 0
  br i1 %52, label %53, label %57

53:                                               ; preds = %47
  %54 = getelementptr inbounds nuw i8, ptr %3, i64 20
  store i32 %1, ptr %54, align 4, !tbaa !34
  %55 = getelementptr inbounds nuw i8, ptr %3, i64 24
  store ptr %0, ptr %55, align 8, !tbaa !38
  %56 = getelementptr inbounds nuw i8, ptr %3, i64 32
  tail call void @llvm.memcpy.p0.p0.i64(ptr noundef nonnull align 8 dereferenceable(64) %56, ptr noundef nonnull align 8 dereferenceable(64) %2, i64 64, i1 false), !tbaa.struct !39
  br label %57

57:                                               ; preds = %47, %53, %36, %39, %42, %12, %14, %4, %32, %8
  %.0 = phi i32 [ %35, %32 ], [ %11, %8 ], [ 2, %4 ], [ 4, %14 ], [ 4, %12 ], [ 14, %42 ], [ 14, %39 ], [ 14, %36 ], [ 0, %53 ], [ %51, %47 ]
  ret i32 %.0
}